target datalayout = "e-m:e-p270:32:32-p271:32:32-p272:64:64-i64:64-i128:128-f80:128-n8:16:32:64-S128"
target triple = "x86_64-pc-linux-gnu"

%"class.fmt::v9::basic_string_view" = type { ptr, i64 }
%"class.std::shared_ptr" = type { %"class.std::__shared_ptr" }
%"class.std::__shared_ptr" = type { ptr, %"class.std::__shared_count" }
%"class.std::__shared_count" = type { ptr }
%"class.LIEF::ELF::DynamicEntryArray" = type { %"class.LIEF::ELF::DynamicEntry", %"class.std::vector.39" }
%"class.LIEF::ELF::DynamicEntry" = type { %"class.LIEF::Object", i64, i64 }
%"class.LIEF::Object" = type { ptr }
%"class.std::vector.39" = type { %"struct.std::_Vector_base.40" }
%"struct.std::_Vector_base.40" = type { %"struct.std::_Vector_base<unsigned long, std::allocator<unsigned long>>::_Vector_impl" }
%"struct.std::_Vector_base<unsigned long, std::allocator<unsigned long>>::_Vector_impl" = type { %"struct.std::_Vector_base<unsigned long, std::allocator<unsigned long>>::_Vector_impl_data" }
%"struct.std::_Vector_base<unsigned long, std::allocator<unsigned long>>::_Vector_impl_data" = type { ptr, ptr, ptr }
%"class.fmt::v9::basic_format_string.1074" = type { %"class.fmt::v9::basic_string_view" }
%"class.LIEF::logging::Logger" = type { %"class.std::shared_ptr" }
%"struct.spdlog::source_loc" = type { ptr, i32, ptr }

@_ZZNK4LIEF3ELF17DynamicEntryArrayixEmE7GARBAGE = internal global i64 0, align 8
@.str.1 = private unnamed_addr constant [38 x i8] c"DynamicEntryArray[{}] is out-of-range\00", align 1

; Function Attrs: mustprogress uwtable
define linkonce_odr hidden { ptr, i64 } @_ZN6spdlog7details14to_string_viewIcJRKmEEEN3fmt2v917basic_string_viewIT_EENS5_19basic_format_stringIS7_JDpT0_EEE(ptr %0, i64 %1) #3 comdat {
  %3 = alloca %"class.fmt::v9::basic_string_view", align 8
  %4 = alloca ptr, align 8
  %5 = alloca %"class.fmt::v9::basic_string_view", align 8
  %6 = alloca %"class.fmt::v9::basic_format_string.1074", align 8
  %7 = getelementptr inbounds { ptr, i64 }, ptr %6, i32 0, i32 0
  store ptr %0, ptr %7, align 8
  %8 = getelementptr inbounds { ptr, i64 }, ptr %6, i32 0, i32 1
  store i64 %1, ptr %8, align 8
  store ptr %6, ptr %4, align 8
  %9 = load ptr, ptr %4, align 8
  call void @llvm.memcpy.p0.p0.i64(ptr align 8 %3, ptr align 8 %9, i64 16, i1 false)
  %10 = load { ptr, i64 }, ptr %3, align 8
  %11 = getelementptr inbounds { ptr, i64 }, ptr %5, i32 0, i32 0
  %12 = extractvalue { ptr, i64 } %10, 0
  store ptr %12, ptr %11, align 8
  %13 = getelementptr inbounds { ptr, i64 }, ptr %5, i32 0, i32 1
  %14 = extractvalue { ptr, i64 } %10, 1
  store i64 %14, ptr %13, align 8
  %15 = load { ptr, i64 }, ptr %5, align 8
  ret { ptr, i64 } %15
}

; Function Attrs: mustprogress uwtable
define linkonce_odr hidden void @_ZN6spdlog6logger3logIJRKmEEEvNS_10source_locENS_5level10level_enumEN3fmt2v919basic_format_stringIcJDpNS8_13type_identityIT_E4typeEEEEDpOSB_(ptr noundef nonnull align 8 dereferenceable(208) %0, ptr noundef byval(%"struct.spdlog::source_loc") align 8 %1, i32 noundef %2, ptr %3, i64 %4, ptr noundef nonnull align 8 dereferenceable(8) %5) #3 comdat align 2 {
  %7 = alloca %"class.fmt::v9::basic_format_string.1074", align 8
  %8 = alloca ptr, align 8
  %9 = alloca i32, align 4
  %10 = alloca ptr, align 8
  %11 = alloca %"struct.spdlog::source_loc", align 8
  %12 = alloca %"class.fmt::v9::basic_string_view", align 8
  %13 = alloca %"class.fmt::v9::basic_format_string.1074", align 8
  %14 = getelementptr inbounds { ptr, i64 }, ptr %7, i32 0, i32 0
  store ptr %3, ptr %14, align 8
  %15 = getelementptr inbounds { ptr, i64 }, ptr %7, i32 0, i32 1
  store i64 %4, ptr %15, align 8
  store ptr %0, ptr %8, align 8
  store i32 %2, ptr %9, align 4
  store ptr %5, ptr %10, align 8
  %16 = load ptr, ptr %8, align 8
  call void @llvm.memcpy.p0.p0.i64(ptr align 8 %11, ptr align 8 %1, i64 24, i1 false)
  %17 = load i32, ptr %9, align 4
  call void @llvm.memcpy.p0.p0.i64(ptr align 8 %13, ptr align 8 %7, i64 16, i1 false)
  %18 = getelementptr inbounds { ptr, i64 }, ptr %13, i32 0, i32 0
  %19 = load ptr, ptr %18, align 8
  %20 = getelementptr inbounds { ptr, i64 }, ptr %13, i32 0, i32 1
  %21 = load i64, ptr %20, align 8
  %22 = call { ptr, i64 } @_ZN6spdlog7details14to_string_viewIcJRKmEEEN3fmt2v917basic_string_viewIT_EENS5_19basic_format_stringIS7_JDpT0_EEE(ptr %19, i64 %21)
  %23 = getelementptr inbounds { ptr, i64 }, ptr %12, i32 0, i32 0
  %24 = extractvalue { ptr, i64 } %22, 0
  store ptr %24, ptr %23, align 8
  %25 = getelementptr inbounds { ptr, i64 }, ptr %12, i32 0, i32 1
  %26 = extractvalue { ptr, i64 } %22, 1
  store i64 %26, ptr %25, align 8
  %27 = load ptr, ptr %10, align 8
  %28 = getelementptr inbounds { ptr, i64 }, ptr %12, i32 0, i32 0
  %29 = load ptr, ptr %28, align 8
  %30 = getelementptr inbounds { ptr, i64 }, ptr %12, i32 0, i32 1
  %31 = load i64, ptr %30, align 8
  call void @_ZN6spdlog6logger4log_IJRKmEEEvNS_10source_locENS_5level10level_enumEN3fmt2v917basic_string_viewIcEEDpOT_(ptr noundef nonnull align 8 dereferenceable(208) %16, ptr noundef byval(%"struct.spdlog::source_loc") align 8 %11, i32 noundef %17, ptr %29, i64 %31, ptr noundef nonnull align 8 dereferenceable(8) %27)
  ret void
}

; Function Attrs: mustprogress nounwind uwtable
define linkonce_odr hidden void @_ZN6spdlog10source_locC2Ev(ptr noundef nonnull align 8 dereferenceable(24) %0) unnamed_addr #1 comdat align 2 {
  %2 = alloca ptr, align 8
  store ptr %0, ptr %2, align 8
  %3 = load ptr, ptr %2, align 8
  %4 = getelementptr inbounds %"struct.spdlog::source_loc", ptr %3, i32 0, i32 0
  store ptr null, ptr %4, align 8
  %5 = getelementptr inbounds %"struct.spdlog::source_loc", ptr %3, i32 0, i32 1
  store i32 0, ptr %5, align 8
  %6 = getelementptr inbounds %"struct.spdlog::source_loc", ptr %3, i32 0, i32 2
  store ptr null, ptr %6, align 8
  ret void
}

; Function Attrs: mustprogress nounwind uwtable
define linkonce_odr hidden noundef ptr @_ZNKSt12__shared_ptrIN6spdlog6loggerELN9__gnu_cxx12_Lock_policyE2EE3getEv(ptr noundef nonnull align 8 dereferenceable(16) %0) #1 comdat align 2 {
  %2 = alloca ptr, align 8
  store ptr %0, ptr %2, align 8
  %3 = load ptr, ptr %2, align 8
  %4 = getelementptr inbounds %"class.std::__shared_ptr", ptr %3, i32 0, i32 0
  %5 = load ptr, ptr %4, align 8
  ret ptr %5
}

; Function Attrs: mustprogress uwtable
define linkonce_odr hidden void @_ZN6spdlog6logger3logIJRKmEEEvNS_5level10level_enumEN3fmt2v919basic_format_stringIcJDpNS7_13type_identityIT_E4typeEEEEDpOSA_(ptr noundef nonnull align 8 dereferenceable(208) %0, i32 noundef %1, ptr %2, i64 %3, ptr noundef nonnull align 8 dereferenceable(8) %4) #3 comdat align 2 {
  %6 = alloca %"class.fmt::v9::basic_format_string.1074", align 8
  %7 = alloca ptr, align 8
  %8 = alloca i32, align 4
  %9 = alloca ptr, align 8
  %10 = alloca %"struct.spdlog::source_loc", align 8
  %11 = alloca %"class.fmt::v9::basic_format_string.1074", align 8
  %12 = getelementptr inbounds { ptr, i64 }, ptr %6, i32 0, i32 0
  store ptr %2, ptr %12, align 8
  %13 = getelementptr inbounds { ptr, i64 }, ptr %6, i32 0, i32 1
  store i64 %3, ptr %13, align 8
  store ptr %0, ptr %7, align 8
  store i32 %1, ptr %8, align 4
  store ptr %4, ptr %9, align 8
  %14 = load ptr, ptr %7, align 8
  call void @llvm.memset.p0.i64(ptr align 8 %10, i8 0, i64 24, i1 false)
  call void @_ZN6spdlog10source_locC2Ev(ptr noundef nonnull align 8 dereferenceable(24) %10) #16
  %15 = load i32, ptr %8, align 4
  call void @llvm.memcpy.p0.p0.i64(ptr align 8 %11, ptr align 8 %6, i64 16, i1 false)
  %16 = load ptr, ptr %9, align 8
  %17 = getelementptr inbounds { ptr, i64 }, ptr %11, i32 0, i32 0
  %18 = load ptr, ptr %17, align 8
  %19 = getelementptr inbounds { ptr, i64 }, ptr %11, i32 0, i32 1
  %20 = load i64, ptr %19, align 8
  call void @_ZN6spdlog6logger3logIJRKmEEEvNS_10source_locENS_5level10level_enumEN3fmt2v919basic_format_stringIcJDpNS8_13type_identityIT_E4typeEEEEDpOSB_(ptr noundef nonnull align 8 dereferenceable(208) %14, ptr noundef byval(%"struct.spdlog::source_loc") align 8 %10, i32 noundef %15, ptr %18, i64 %20, ptr noundef nonnull align 8 dereferenceable(8) %16)
  ret void
}

; Function Attrs: mustprogress nounwind uwtable
define linkonce_odr hidden noundef ptr @_ZNKSt19__shared_ptr_accessIN6spdlog6loggerELN9__gnu_cxx12_Lock_policyE2ELb0ELb0EE6_M_getEv(ptr noundef nonnull align 1 dereferenceable(1) %0) #1 comdat align 2 {
  %2 = alloca ptr, align 8
  store ptr %0, ptr %2, align 8
  %3 = load ptr, ptr %2, align 8
  %4 = call noundef ptr @_ZNKSt12__shared_ptrIN6spdlog6loggerELN9__gnu_cxx12_Lock_policyE2EE3getEv(ptr noundef nonnull align 8 dereferenceable(16) %3) #16
  ret ptr %4
}

; Function Attrs: mustprogress uwtable
define linkonce_odr hidden void @_ZN6spdlog6logger4warnIJRKmEEEvN3fmt2v919basic_format_stringIcJDpNS5_13type_identityIT_E4typeEEEEDpOS8_(ptr noundef nonnull align 8 dereferenceable(208) %0, ptr %1, i64 %2, ptr noundef nonnull align 8 dereferenceable(8) %3) #3 comdat align 2 {
  %5 = alloca %"class.fmt::v9::basic_format_string.1074", align 8
  %6 = alloca ptr, align 8
  %7 = alloca ptr, align 8
  %8 = alloca %"class.fmt::v9::basic_format_string.1074", align 8
  %9 = getelementptr inbounds { ptr, i64 }, ptr %5, i32 0, i32 0
  store ptr %1, ptr %9, align 8
  %10 = getelementptr inbounds { ptr, i64 }, ptr %5, i32 0, i32 1
  store i64 %2, ptr %10, align 8
  store ptr %0, ptr %6, align 8
  store ptr %3, ptr %7, align 8
  %11 = load ptr, ptr %6, align 8
  call void @llvm.memcpy.p0.p0.i64(ptr align 8 %8, ptr align 8 %5, i64 16, i1 false)
  %12 = load ptr, ptr %7, align 8
  %13 = getelementptr inbounds { ptr, i64 }, ptr %8, i32 0, i32 0
  %14 = load ptr, ptr %13, align 8
  %15 = getelementptr inbounds { ptr, i64 }, ptr %8, i32 0, i32 1
  %16 = load i64, ptr %15, align 8
  call void @_ZN6spdlog6logger3logIJRKmEEEvNS_5level10level_enumEN3fmt2v919basic_format_stringIcJDpNS7_13type_identityIT_E4typeEEEEDpOSA_(ptr noundef nonnull align 8 dereferenceable(208) %11, i32 noundef 3, ptr %14, i64 %16, ptr noundef nonnull align 8 dereferenceable(8) %12)
  ret void
}

; Function Attrs: mustprogress nounwind uwtable
define linkonce_odr hidden noundef i64 @_ZNSt11char_traitsIcE6lengthEPKc(ptr noundef %0) #1 comdat align 2 {
  %2 = alloca ptr, align 8
  store ptr %0, ptr %2, align 8
  %3 = load ptr, ptr %2, align 8
  %4 = call i64 @strlen(ptr noundef %3) #16
  ret i64 %4
}

; Function Attrs: mustprogress nounwind uwtable
define linkonce_odr hidden noundef ptr @_ZNKSt19__shared_ptr_accessIN6spdlog6loggerELN9__gnu_cxx12_Lock_policyE2ELb0ELb0EEptEv(ptr noundef nonnull align 1 dereferenceable(1) %0) #1 comdat align 2 {
  %2 = alloca ptr, align 8
  store ptr %0, ptr %2, align 8
  %3 = load ptr, ptr %2, align 8
  %4 = call noundef ptr @_ZNKSt19__shared_ptr_accessIN6spdlog6loggerELN9__gnu_cxx12_Lock_policyE2ELb0ELb0EE6_M_getEv(ptr noundef nonnull align 1 dereferenceable(1) %3) #16
  ret ptr %4
}

; Function Attrs: mustprogress nounwind uwtable
define linkonce_odr hidden noundef nonnull align 8 dereferenceable(8) ptr @_ZNKSt6vectorImSaImEEixEm(ptr noundef nonnull align 8 dereferenceable(24) %0, i64 noundef %1) #1 comdat align 2 {
  %3 = alloca ptr, align 8
  %4 = alloca i64, align 8
  store ptr %0, ptr %3, align 8
  store i64 %1, ptr %4, align 8
  %5 = load ptr, ptr %3, align 8
  %6 = getelementptr inbounds %"struct.std::_Vector_base.40", ptr %5, i32 0, i32 0
  %7 = getelementptr inbounds %"struct.std::_Vector_base<unsigned long, std::allocator<unsigned long>>::_Vector_impl_data", ptr %6, i32 0, i32 0
  %8 = load ptr, ptr %7, align 8
  %9 = load i64, ptr %4, align 8
  %10 = getelementptr inbounds i64, ptr %8, i64 %9
  ret ptr %10
}

; Function Attrs: mustprogress uwtable
define linkonce_odr hidden void @_ZN4LIEF7logging6Logger4warnIJmEEEvPKcDpRKT_(ptr noundef %0, ptr noundef nonnull align 8 dereferenceable(8) %1) #3 comdat align 2 {
  %3 = alloca ptr, align 8
  %4 = alloca ptr, align 8
  %5 = alloca ptr, align 8
  %6 = alloca ptr, align 8
  %7 = alloca ptr, align 8
  %8 = alloca ptr, align 8
  %9 = alloca ptr, align 8
  %10 = alloca %"class.fmt::v9::basic_format_string.1074", align 8
  store ptr %0, ptr %8, align 8
  store ptr %1, ptr %9, align 8
  %11 = call noundef nonnull align 8 dereferenceable(16) ptr @_ZN4LIEF7logging6Logger8instanceEv()
  %12 = getelementptr inbounds %"class.LIEF::logging::Logger", ptr %11, i32 0, i32 0
  %13 = call noundef ptr @_ZNKSt19__shared_ptr_accessIN6spdlog6loggerELN9__gnu_cxx12_Lock_policyE2ELb0ELb0EEptEv(ptr noundef nonnull align 1 dereferenceable(1) %12) #16
  store ptr %10, ptr %6, align 8
  store ptr %8, ptr %7, align 8
  %14 = load ptr, ptr %6, align 8
  %15 = load ptr, ptr %7, align 8
  %16 = load ptr, ptr %15, align 8
  store ptr %14, ptr %4, align 8
  store ptr %16, ptr %5, align 8
  %17 = load ptr, ptr %4, align 8
  %18 = load ptr, ptr %5, align 8
  store ptr %18, ptr %17, align 8
  %19 = getelementptr inbounds %"class.fmt::v9::basic_string_view", ptr %17, i32 0, i32 1
  %20 = load ptr, ptr %5, align 8
  %21 = call noundef i64 @_ZNSt11char_traitsIcE6lengthEPKc(ptr noundef %20)
  store i64 %21, ptr %19, align 8
  %22 = load ptr, ptr %7, align 8
  store ptr %22, ptr %3, align 8
  %23 = load ptr, ptr %9, align 8
  %24 = getelementptr inbounds { ptr, i64 }, ptr %10, i32 0, i32 0
  %25 = load ptr, ptr %24, align 8
  %26 = getelementptr inbounds { ptr, i64 }, ptr %10, i32 0, i32 1
  %27 = load i64, ptr %26, align 8
  call void @_ZN6spdlog6logger4warnIJRKmEEEvN3fmt2v919basic_format_stringIcJDpNS5_13type_identityIT_E4typeEEEEDpOS8_(ptr noundef nonnull align 8 dereferenceable(208) %13, ptr %25, i64 %27, ptr noundef nonnull align 8 dereferenceable(8) %23)
  ret void
}

; Function Attrs: mustprogress nounwind uwtable
define linkonce_odr hidden noundef i64 @_ZNKSt6vectorImSaImEE4sizeEv(ptr noundef nonnull align 8 dereferenceable(24) %0) #1 comdat align 2 {
  %2 = alloca ptr, align 8
  store ptr %0, ptr %2, align 8
  %3 = load ptr, ptr %2, align 8
  %4 = getelementptr inbounds %"struct.std::_Vector_base.40", ptr %3, i32 0, i32 0
  %5 = getelementptr inbounds %"struct.std::_Vector_base<unsigned long, std::allocator<unsigned long>>::_Vector_impl_data", ptr %4, i32 0, i32 1
  %6 = load ptr, ptr %5, align 8
  %7 = getelementptr inbounds %"struct.std::_Vector_base.40", ptr %3, i32 0, i32 0
  %8 = getelementptr inbounds %"struct.std::_Vector_base<unsigned long, std::allocator<unsigned long>>::_Vector_impl_data", ptr %7, i32 0, i32 0
  %9 = load ptr, ptr %8, align 8
  %10 = ptrtoint ptr %6 to i64
  %11 = ptrtoint ptr %9 to i64
  %12 = sub i64 %10, %11
  %13 = sdiv exact i64 %12, 8
  ret i64 %13
}

; Function Attrs: mustprogress uwtable
define noundef nonnull align 8 dereferenceable(8) ptr @_ZNK4LIEF3ELF17DynamicEntryArrayixEm(ptr noundef nonnull align 8 dereferenceable(48) %0, i64 noundef %1) #3 align 2 {
  %3 = alloca ptr, align 8
  %4 = alloca ptr, align 8
  %5 = alloca i64, align 8
  store ptr %0, ptr %4, align 8
  store i64 %1, ptr %5, align 8
  %6 = load ptr, ptr %4, align 8
  %7 = load i64, ptr %5, align 8
  %8 = getelementptr inbounds %"class.LIEF::ELF::DynamicEntryArray", ptr %6, i32 0, i32 1
  %9 = call noundef i64 @_ZNKSt6vectorImSaImEE4sizeEv(ptr noundef nonnull align 8 dereferenceable(24) %8) #16
  %10 = icmp uge i64 %7, %9
  br i1 %10, label %11, label %12

11:                                               ; preds = %2
  call void @_ZN4LIEF7logging6Logger4warnIJmEEEvPKcDpRKT_(ptr noundef @.str.1, ptr noundef nonnull align 8 dereferenceable(8) %5)
  store ptr @_ZZNK4LIEF3ELF17DynamicEntryArrayixEmE7GARBAGE, ptr %3, align 8
  br label %16

12:                                               ; preds = %2
  %13 = getelementptr inbounds %"class.LIEF::ELF::DynamicEntryArray", ptr %6, i32 0, i32 1
  %14 = load i64, ptr %5, align 8
  %15 = call noundef nonnull align 8 dereferenceable(8) ptr @_ZNKSt6vectorImSaImEEixEm(ptr noundef nonnull align 8 dereferenceable(24) %13, i64 noundef %14) #16
  store ptr %15, ptr %3, align 8
  br label %16

16:                                               ; preds = %12, %11
  %17 = load ptr, ptr %3, align 8
  ret ptr %17
}