; Function Attrs: mustprogress uwtable
define noundef nonnull align 8 dereferenceable(8) ptr @_ZNK4LIEF3ELF17DynamicEntryArrayixEm(ptr nocapture noundef nonnull readonly align 8 dereferenceable(48) %0, i64 noundef %1) local_unnamed_addr #4 align 2 {
  %3 = alloca %"struct.spdlog::source_loc", align 8
  %4 = alloca i64, align 8
  store i64 %1, ptr %4, align 8
  %5 = getelementptr inbounds i8, ptr %0, i64 24
  %6 = getelementptr inbounds i8, ptr %0, i64 32
  %7 = load ptr, ptr %6, align 8
  %8 = load ptr, ptr %5, align 8
  %9 = ptrtoint ptr %7 to i64
  %10 = ptrtoint ptr %8 to i64
  %11 = sub i64 %9, %10
  %12 = ashr exact i64 %11, 3
  %.not = icmp ugt i64 %12, %1
  br i1 %.not, label %16, label %13

13:                                               ; preds = %2
  %14 = tail call noundef nonnull align 8 dereferenceable(16) ptr @_ZN4LIEF7logging6Logger8instanceEv()
  %15 = load ptr, ptr %14, align 8
  call void @llvm.lifetime.start.p0(i64 24, ptr nonnull %3)
  call void @llvm.memset.p0.i64(ptr noundef nonnull align 8 dereferenceable(24) %3, i8 0, i64 24, i1 false)
  call void @_ZN6spdlog6logger4log_IJRKmEEEvNS_10source_locENS_5level10level_enumEN3fmt2v917basic_string_viewIcEEDpOT_(ptr noundef nonnull align 8 dereferenceable(208) %15, ptr noundef nonnull byval(%"struct.spdlog::source_loc") align 8 %3, i32 noundef 3, ptr nonnull @.str.1, i64 37, ptr noundef nonnull align 8 dereferenceable(8) %4)
  call void @llvm.lifetime.end.p0(i64 24, ptr nonnull %3)
  br label %18

16:                                               ; preds = %2
  %17 = getelementptr inbounds i64, ptr %8, i64 %1
  br label %18

18:                                               ; preds = %16, %13
  %.0 = phi ptr [ @_ZZNK4LIEF3ELF17DynamicEntryArrayixEmE7GARBAGE, %13 ], [ %17, %16 ]
  ret ptr %.0
}